; Function Attrs: nounwind uwtable
define noalias nonnull ptr @l_Lean_Elab_Tactic_Omega_withoutModifyingState___rarg___lambda__1___boxed(ptr noundef %0, ptr noundef %1, ptr noundef %2, ptr noundef %3, ptr noundef %4, ptr noundef %5, ptr noundef %6, ptr noundef %7, ptr noundef %8, ptr noundef %9, ptr noundef %10) #1 {
  %12 = ptrtoint ptr %4 to i64
  %13 = and i64 %12, 1
  %.not = icmp eq i64 %13, 0
  br i1 %.not, label %14, label %lean_dec.exit28

14:                                               ; preds = %11
  %15 = load i32, ptr %4, align 4, !tbaa !8
  %16 = icmp sgt i32 %15, 1
  br i1 %16, label %17, label %19, !prof !11

17:                                               ; preds = %14
  %18 = add nsw i32 %15, -1
  store i32 %18, ptr %4, align 4, !tbaa !8
  br label %lean_dec.exit28

19:                                               ; preds = %14
  %.not.i = icmp eq i32 %15, 0
  br i1 %.not.i, label %lean_dec.exit28, label %20

20:                                               ; preds = %19
  tail call void @lean_dec_ref_cold(ptr noundef nonnull %4) #4
  br label %lean_dec.exit28

lean_dec.exit28:                                  ; preds = %20, %19, %17, %11
  tail call void @lean_inc_heartbeat() #4
  %21 = tail call noalias ptr @mi_malloc_small(i64 noundef 24) #4
  %22 = icmp eq ptr %21, null
  br i1 %22, label %23, label %lean_alloc_ctor.exit.i

23:                                               ; preds = %lean_dec.exit28
  tail call void @lean_internal_panic_out_of_memory() #5
  unreachable

lean_alloc_ctor.exit.i:                           ; preds = %lean_dec.exit28
  %24 = getelementptr inbounds nuw i8, ptr %21, i64 4
  store i32 1, ptr %21, align 4, !tbaa !8
  store i32 131096, ptr %24, align 4
  %25 = getelementptr inbounds nuw i8, ptr %21, i64 8
  store ptr %0, ptr %25, align 8, !tbaa !4
  %26 = getelementptr inbounds nuw i8, ptr %21, i64 16
  store ptr inttoptr (i64 1 to ptr), ptr %26, align 8, !tbaa !4
  tail call void @lean_inc_heartbeat() #4
  %27 = tail call noalias ptr @mi_malloc_small(i64 noundef 24) #4
  %28 = icmp eq ptr %27, null
  br i1 %28, label %29, label %l_Lean_Elab_Tactic_Omega_withoutModifyingState___rarg___lambda__1.exit

29:                                               ; preds = %lean_alloc_ctor.exit.i
  tail call void @lean_internal_panic_out_of_memory() #5
  unreachable

l_Lean_Elab_Tactic_Omega_withoutModifyingState___rarg___lambda__1.exit: ; preds = %lean_alloc_ctor.exit.i
  %30 = getelementptr inbounds nuw i8, ptr %27, i64 4
  store i32 1, ptr %27, align 4, !tbaa !8
  store i32 131096, ptr %30, align 4
  %31 = getelementptr inbounds nuw i8, ptr %27, i64 8
  store ptr %21, ptr %31, align 8, !tbaa !4
  %32 = getelementptr inbounds nuw i8, ptr %27, i64 16
  store ptr %10, ptr %32, align 8, !tbaa !4
  %33 = ptrtoint ptr %9 to i64
  %34 = and i64 %33, 1
  %.not45 = icmp eq i64 %34, 0
  br i1 %.not45, label %35, label %lean_dec.exit27

35:                                               ; preds = %l_Lean_Elab_Tactic_Omega_withoutModifyingState___rarg___lambda__1.exit
  %36 = load i32, ptr %9, align 4, !tbaa !8
  %37 = icmp sgt i32 %36, 1
  br i1 %37, label %38, label %40, !prof !11

38:                                               ; preds = %35
  %39 = add nsw i32 %36, -1
  store i32 %39, ptr %9, align 4, !tbaa !8
  br label %lean_dec.exit27

40:                                               ; preds = %35
  %.not.i29 = icmp eq i32 %36, 0
  br i1 %.not.i29, label %lean_dec.exit27, label %41

41:                                               ; preds = %40
  tail call void @lean_dec_ref_cold(ptr noundef nonnull %9) #4
  br label %lean_dec.exit27

lean_dec.exit27:                                  ; preds = %41, %40, %38, %l_Lean_Elab_Tactic_Omega_withoutModifyingState___rarg___lambda__1.exit
  %42 = ptrtoint ptr %8 to i64
  %43 = and i64 %42, 1
  %.not46 = icmp eq i64 %43, 0
  br i1 %.not46, label %44, label %lean_dec.exit26

44:                                               ; preds = %lean_dec.exit27
  %45 = load i32, ptr %8, align 4, !tbaa !8
  %46 = icmp sgt i32 %45, 1
  br i1 %46, label %47, label %49, !prof !11

47:                                               ; preds = %44
  %48 = add nsw i32 %45, -1
  store i32 %48, ptr %8, align 4, !tbaa !8
  br label %lean_dec.exit26

49:                                               ; preds = %44
  %.not.i31 = icmp eq i32 %45, 0
  br i1 %.not.i31, label %lean_dec.exit26, label %50

50:                                               ; preds = %49
  tail call void @lean_dec_ref_cold(ptr noundef nonnull %8) #4
  br label %lean_dec.exit26

lean_dec.exit26:                                  ; preds = %50, %49, %47, %lean_dec.exit27
  %51 = ptrtoint ptr %7 to i64
  %52 = and i64 %51, 1
  %.not47 = icmp eq i64 %52, 0
  br i1 %.not47, label %53, label %lean_dec.exit25

53:                                               ; preds = %lean_dec.exit26
  %54 = load i32, ptr %7, align 4, !tbaa !8
  %55 = icmp sgt i32 %54, 1
  br i1 %55, label %56, label %58, !prof !11

56:                                               ; preds = %53
  %57 = add nsw i32 %54, -1
  store i32 %57, ptr %7, align 4, !tbaa !8
  br label %lean_dec.exit25

58:                                               ; preds = %53
  %.not.i33 = icmp eq i32 %54, 0
  br i1 %.not.i33, label %lean_dec.exit25, label %59

59:                                               ; preds = %58
  tail call void @lean_dec_ref_cold(ptr noundef nonnull %7) #4
  br label %lean_dec.exit25

lean_dec.exit25:                                  ; preds = %59, %58, %56, %lean_dec.exit26
  %60 = ptrtoint ptr %6 to i64
  %61 = and i64 %60, 1
  %.not48 = icmp eq i64 %61, 0
  br i1 %.not48, label %62, label %lean_dec.exit24

62:                                               ; preds = %lean_dec.exit25
  %63 = load i32, ptr %6, align 4, !tbaa !8
  %64 = icmp sgt i32 %63, 1
  br i1 %64, label %65, label %67, !prof !11

65:                                               ; preds = %62
  %66 = add nsw i32 %63, -1
  store i32 %66, ptr %6, align 4, !tbaa !8
  br label %lean_dec.exit24

67:                                               ; preds = %62
  %.not.i35 = icmp eq i32 %63, 0
  br i1 %.not.i35, label %lean_dec.exit24, label %68

68:                                               ; preds = %67
  tail call void @lean_dec_ref_cold(ptr noundef nonnull %6) #4
  br label %lean_dec.exit24

lean_dec.exit24:                                  ; preds = %68, %67, %65, %lean_dec.exit25
  %69 = ptrtoint ptr %5 to i64
  %70 = and i64 %69, 1
  %.not49 = icmp eq i64 %70, 0
  br i1 %.not49, label %71, label %lean_dec.exit23

71:                                               ; preds = %lean_dec.exit24
  %72 = load i32, ptr %5, align 4, !tbaa !8
  %73 = icmp sgt i32 %72, 1
  br i1 %73, label %74, label %76, !prof !11

74:                                               ; preds = %71
  %75 = add nsw i32 %72, -1
  store i32 %75, ptr %5, align 4, !tbaa !8
  br label %lean_dec.exit23

76:                                               ; preds = %71
  %.not.i37 = icmp eq i32 %72, 0
  br i1 %.not.i37, label %lean_dec.exit23, label %77

77:                                               ; preds = %76
  tail call void @lean_dec_ref_cold(ptr noundef nonnull %5) #4
  br label %lean_dec.exit23

lean_dec.exit23:                                  ; preds = %77, %76, %74, %lean_dec.exit24
  %78 = ptrtoint ptr %3 to i64
  %79 = and i64 %78, 1
  %.not50 = icmp eq i64 %79, 0
  br i1 %.not50, label %80, label %lean_dec.exit22

80:                                               ; preds = %lean_dec.exit23
  %81 = load i32, ptr %3, align 4, !tbaa !8
  %82 = icmp sgt i32 %81, 1
  br i1 %82, label %83, label %85, !prof !11

83:                                               ; preds = %80
  %84 = add nsw i32 %81, -1
  store i32 %84, ptr %3, align 4, !tbaa !8
  br label %lean_dec.exit22

85:                                               ; preds = %80
  %.not.i39 = icmp eq i32 %81, 0
  br i1 %.not.i39, label %lean_dec.exit22, label %86

86:                                               ; preds = %85
  tail call void @lean_dec_ref_cold(ptr noundef nonnull %3) #4
  br label %lean_dec.exit22

lean_dec.exit22:                                  ; preds = %86, %85, %83, %lean_dec.exit23
  %87 = ptrtoint ptr %2 to i64
  %88 = and i64 %87, 1
  %.not51 = icmp eq i64 %88, 0
  br i1 %.not51, label %89, label %lean_dec.exit21

89:                                               ; preds = %lean_dec.exit22
  %90 = load i32, ptr %2, align 4, !tbaa !8
  %91 = icmp sgt i32 %90, 1
  br i1 %91, label %92, label %94, !prof !11

92:                                               ; preds = %89
  %93 = add nsw i32 %90, -1
  store i32 %93, ptr %2, align 4, !tbaa !8
  br label %lean_dec.exit21

94:                                               ; preds = %89
  %.not.i41 = icmp eq i32 %90, 0
  br i1 %.not.i41, label %lean_dec.exit21, label %95

95:                                               ; preds = %94
  tail call void @lean_dec_ref_cold(ptr noundef nonnull %2) #4
  br label %lean_dec.exit21

lean_dec.exit21:                                  ; preds = %95, %94, %92, %lean_dec.exit22
  %96 = ptrtoint ptr %1 to i64
  %97 = and i64 %96, 1
  %.not52 = icmp eq i64 %97, 0
  br i1 %.not52, label %98, label %lean_dec.exit

98:                                               ; preds = %lean_dec.exit21
  %99 = load i32, ptr %1, align 4, !tbaa !8
  %100 = icmp sgt i32 %99, 1
  br i1 %100, label %101, label %103, !prof !11

101:                                              ; preds = %98
  %102 = add nsw i32 %99, -1
  store i32 %102, ptr %1, align 4, !tbaa !8
  br label %lean_dec.exit

103:                                              ; preds = %98
  %.not.i43 = icmp eq i32 %99, 0
  br i1 %.not.i43, label %lean_dec.exit, label %104

104:                                              ; preds = %103
  tail call void @lean_dec_ref_cold(ptr noundef nonnull %1) #4
  br label %lean_dec.exit

lean_dec.exit:                                    ; preds = %104, %103, %101, %lean_dec.exit21
  ret ptr %27
}